ccopy_reg
_reconstructor
p1
(cnetworkx.classes.digraph
DiGraph
p2
c__builtin__
object
p3
NtRp4
(dp5
S'node'
p6
(dp7
Ve9eb24f75cfe5cf4c353322c6ecbdb827918865cc7ac3ca5d5da9af5e584f04c
p8
(dp9
sS"[u'3EEF3M48knvYgZChmnZ1yXLQvTjQvaVmpC']"
p10
(dp11
sS"[u'14dwW6d3XGLMWtKJm4wpSLXoUWvSHwSYvW']"
p12
(dp13
sS"[u'1Q46YQpKbppksDZYkiedThx7Ktedi3UrFD']"
p14
(dp15
sVe63d8523d7704d7d5d1bc1ba0b8213c58ca64af9adb65293bd73206c244578a6
p16
(dp17
sS"[u'1EvgKr7Jbt6jmNDPVGyhAwCiDicFkVhkuf']"
p18
(dp19
sS"[u'1KB6C6tbXGLo3bmdgHZJ51mtcjKJxn45cg']"
p20
(dp21
sV01410e2598e629e4d021a9010dd669bc317edc70e28d5a518eae4908b792df49
p22
(dp23
sVb320823c43da21c630f20c34c836d8a580b6e22bc33627bc88c23a030ec26588
p24
(dp25
sVad9818964f48d369d99b9366c3ae516f10247d79f972da9531f0c3ff833028c6
p26
(dp27
sVdd3bc0242502cccf0d24f1650fd398373ff68b43b366bacb0d481fe4323747fc
p28
(dp29
sS"[u'1DCd4W7GsFVhixofQNNd9GwWWxzU4fMVqB']"
p30
(dp31
ssS'node_dict_factory'
p32
c__builtin__
dict
p33
sS'edge_attr_dict_factory'
p34
g33
sS'succ'
p35
(dp36
g8
(dp37
g16
(dp38
S'transaction'
p39
I01
sS'weight'
p40
F0.88496691000000005
ssg10
(dp41
g39
I00
sg40
F0.02240209
sssg10
(dp42
sg12
(dp43
sg14
(dp44
sg16
(dp45
g26
(dp46
g39
I01
sg40
F0.13810600000000001
ssg14
(dp47
g39
I00
sg40
F0.74663491000000004
sssg18
(dp48
sg20
(dp49
sg22
(dp50
g24
(dp51
g39
I01
sg40
F0.92997799999999997
sssg24
(dp52
g8
(dp53
g39
I01
sg40
F0.90759299999999998
ssg20
(dp54
g39
I00
sg40
F0.022159000000000002
sssg26
(dp55
g12
(dp56
g39
I00
sg40
F0.068291939999999995
ssg28
(dp57
g39
I01
sg40
F0.069153359999999997
sssg28
(dp58
g18
(dp59
g39
I00
sg40
F0.00020071999999999999
ssg30
(dp60
g39
I00
sg40
F0.068291939999999995
sssg30
(dp61
ssS'edge'
p62
g36
sS'graph'
p63
(dp64
sS'adjlist_dict_factory'
p65
g33
sS'adj'
p66
g36
sS'pred'
p67
(dp68
g8
(dp69
g24
g53
ssg10
(dp70
g8
g41
ssg12
(dp71
g26
g56
ssg14
(dp72
g16
g47
ssg16
(dp73
g8
g38
ssg18
(dp74
g28
g59
ssg20
(dp75
g24
g54
ssg22
(dp76
sg24
(dp77
g22
g51
ssg26
(dp78
g16
g46
ssg28
(dp79
g26
g57
ssg30
(dp80
g28
g60
sssb.